target datalayout = "e-m:e-p270:32:32-p271:32:32-p272:64:64-i64:64-i128:128-f80:128-n8:16:32:64-S128"
target triple = "x86_64-pc-linux-gnu"

%struct.ExprEvalStep = type { i64, ptr, ptr, %union.anon }
%union.anon = type { %struct.anon.23 }
%struct.anon.23 = type { ptr, ptr, i32, i32, ptr, ptr }
%struct.anon.49 = type { i32, [0 x i8] }
%struct.anon.45 = type { ptr }
%struct.JsonIsPredicate = type { i32, ptr, ptr, i32, i8, i32 }

; Function Attrs: inlinehint nounwind uwtable
define internal ptr @DatumGetJsonbP(i64 noundef %0) #2 {
  %2 = alloca i64, align 8
  store i64 %0, ptr %2, align 8
  %3 = load i64, ptr %2, align 8
  %4 = call ptr @DatumGetPointer(i64 noundef %3)
  %5 = call ptr @pg_detoast_datum(ptr noundef %4)
  ret ptr %5
}

; Function Attrs: inlinehint nounwind uwtable
define internal ptr @DatumGetPointer(i64 noundef %0) #2 {
  %2 = alloca i64, align 8
  store i64 %0, ptr %2, align 8
  %3 = load i64, ptr %2, align 8
  %4 = inttoptr i64 %3 to ptr
  ret ptr %4
}

; Function Attrs: inlinehint nounwind uwtable
define internal i64 @BoolGetDatum(i1 noundef zeroext %0) #2 {
  %2 = alloca i8, align 1
  %3 = zext i1 %0 to i8
  store i8 %3, ptr %2, align 1
  %4 = load i8, ptr %2, align 1, !range !7, !noundef !8
  %5 = trunc i8 %4 to i1
  %6 = select i1 %5, i32 1, i32 0
  %7 = sext i32 %6 to i64
  ret i64 %7
}

; Function Attrs: nounwind uwtable
define dso_local void @ExecEvalJsonIsPredicate(ptr noundef %0, ptr noundef %1) #0 {
  %3 = alloca ptr, align 8
  %4 = alloca ptr, align 8
  %5 = alloca ptr, align 8
  %6 = alloca i64, align 8
  %7 = alloca i32, align 4
  %8 = alloca i8, align 1
  %9 = alloca i32, align 4
  %10 = alloca ptr, align 8
  %11 = alloca ptr, align 8
  store ptr %0, ptr %3, align 8
  store ptr %1, ptr %4, align 8
  call void @llvm.lifetime.start.p0(i64 8, ptr %5) #11
  %12 = load ptr, ptr %4, align 8
  %13 = getelementptr inbounds nuw %struct.ExprEvalStep, ptr %12, i32 0, i32 3
  %14 = getelementptr inbounds nuw %struct.anon.45, ptr %13, i32 0, i32 0
  %15 = load ptr, ptr %14, align 8
  store ptr %15, ptr %5, align 8
  call void @llvm.lifetime.start.p0(i64 8, ptr %6) #11
  %16 = load ptr, ptr %4, align 8
  %17 = getelementptr inbounds nuw %struct.ExprEvalStep, ptr %16, i32 0, i32 1
  %18 = load ptr, ptr %17, align 8
  %19 = load i64, ptr %18, align 8
  store i64 %19, ptr %6, align 8
  call void @llvm.lifetime.start.p0(i64 4, ptr %7) #11
  call void @llvm.lifetime.start.p0(i64 1, ptr %8) #11
  %20 = load ptr, ptr %4, align 8
  %21 = getelementptr inbounds nuw %struct.ExprEvalStep, ptr %20, i32 0, i32 2
  %22 = load ptr, ptr %21, align 8
  %23 = load i8, ptr %22, align 1, !range !7, !noundef !8
  %24 = trunc i8 %23 to i1
  br i1 %24, label %25, label %30

25:                                               ; preds = %2
  %26 = call i64 @BoolGetDatum(i1 noundef zeroext false)
  %27 = load ptr, ptr %4, align 8
  %28 = getelementptr inbounds nuw %struct.ExprEvalStep, ptr %27, i32 0, i32 1
  %29 = load ptr, ptr %28, align 8
  store i64 %26, ptr %29, align 8
  store i32 1, ptr %9, align 4
  br label %162

30:                                               ; preds = %2
  %31 = load ptr, ptr %5, align 8
  %32 = getelementptr inbounds nuw %struct.JsonIsPredicate, ptr %31, i32 0, i32 1
  %33 = load ptr, ptr %32, align 8
  %34 = call i32 @exprType(ptr noundef %33)
  store i32 %34, ptr %7, align 4
  %35 = load i32, ptr %7, align 4
  %36 = icmp eq i32 %35, 25
  br i1 %36, label %40, label %37

37:                                               ; preds = %30
  %38 = load i32, ptr %7, align 4
  %39 = icmp eq i32 %38, 114
  br i1 %39, label %40, label %92

40:                                               ; preds = %37, %30
  call void @llvm.lifetime.start.p0(i64 8, ptr %10) #11
  %41 = load i64, ptr %6, align 8
  %42 = call ptr @DatumGetPointer(i64 noundef %41)
  %43 = call ptr @pg_detoast_datum(ptr noundef %42)
  store ptr %43, ptr %10, align 8
  %44 = load ptr, ptr %5, align 8
  %45 = getelementptr inbounds nuw %struct.JsonIsPredicate, ptr %44, i32 0, i32 3
  %46 = load i32, ptr %45, align 8
  %47 = icmp eq i32 %46, 0
  br i1 %47, label %48, label %49

48:                                               ; preds = %40
  store i8 1, ptr %8, align 1
  br label %72

49:                                               ; preds = %40
  %50 = load ptr, ptr %10, align 8
  %51 = call i32 @json_get_first_token(ptr noundef %50, i1 noundef zeroext false)
  switch i32 %51, label %70 [
    i32 3, label %52
    i32 5, label %58
    i32 1, label %64
    i32 2, label %64
    i32 9, label %64
    i32 10, label %64
    i32 11, label %64
  ]

52:                                               ; preds = %49
  %53 = load ptr, ptr %5, align 8
  %54 = getelementptr inbounds nuw %struct.JsonIsPredicate, ptr %53, i32 0, i32 3
  %55 = load i32, ptr %54, align 8
  %56 = icmp eq i32 %55, 1
  %57 = zext i1 %56 to i8
  store i8 %57, ptr %8, align 1
  br label %71

58:                                               ; preds = %49
  %59 = load ptr, ptr %5, align 8
  %60 = getelementptr inbounds nuw %struct.JsonIsPredicate, ptr %59, i32 0, i32 3
  %61 = load i32, ptr %60, align 8
  %62 = icmp eq i32 %61, 2
  %63 = zext i1 %62 to i8
  store i8 %63, ptr %8, align 1
  br label %71

64:                                               ; preds = %49, %49, %49, %49, %49
  %65 = load ptr, ptr %5, align 8
  %66 = getelementptr inbounds nuw %struct.JsonIsPredicate, ptr %65, i32 0, i32 3
  %67 = load i32, ptr %66, align 8
  %68 = icmp eq i32 %67, 3
  %69 = zext i1 %68 to i8
  store i8 %69, ptr %8, align 1
  br label %71

70:                                               ; preds = %49
  store i8 0, ptr %8, align 1
  br label %71

71:                                               ; preds = %70, %64, %58, %52
  br label %72

72:                                               ; preds = %71, %48
  %73 = load i8, ptr %8, align 1, !range !7, !noundef !8
  %74 = trunc i8 %73 to i1
  br i1 %74, label %75, label %91

75:                                               ; preds = %72
  %76 = load ptr, ptr %5, align 8
  %77 = getelementptr inbounds nuw %struct.JsonIsPredicate, ptr %76, i32 0, i32 4
  %78 = load i8, ptr %77, align 4, !range !7, !noundef !8
  %79 = trunc i8 %78 to i1
  br i1 %79, label %83, label %80

80:                                               ; preds = %75
  %81 = load i32, ptr %7, align 4
  %82 = icmp eq i32 %81, 25
  br i1 %82, label %83, label %91

83:                                               ; preds = %80, %75
  %84 = load ptr, ptr %10, align 8
  %85 = load ptr, ptr %5, align 8
  %86 = getelementptr inbounds nuw %struct.JsonIsPredicate, ptr %85, i32 0, i32 4
  %87 = load i8, ptr %86, align 4, !range !7, !noundef !8
  %88 = trunc i8 %87 to i1
  %89 = call zeroext i1 @json_validate(ptr noundef %84, i1 noundef zeroext %88, i1 noundef zeroext false)
  %90 = zext i1 %89 to i8
  store i8 %90, ptr %8, align 1
  br label %91

91:                                               ; preds = %83, %80, %72
  call void @llvm.lifetime.end.p0(i64 8, ptr %10) #11
  br label %155

92:                                               ; preds = %37
  %93 = load i32, ptr %7, align 4
  %94 = icmp eq i32 %93, 3802
  br i1 %94, label %95, label %153

95:                                               ; preds = %92
  %96 = load ptr, ptr %5, align 8
  %97 = getelementptr inbounds nuw %struct.JsonIsPredicate, ptr %96, i32 0, i32 3
  %98 = load i32, ptr %97, align 8
  %99 = icmp eq i32 %98, 0
  br i1 %99, label %100, label %101

100:                                              ; preds = %95
  store i8 1, ptr %8, align 1
  br label %152

101:                                              ; preds = %95
  call void @llvm.lifetime.start.p0(i64 8, ptr %11) #11
  %102 = load i64, ptr %6, align 8
  %103 = call ptr @DatumGetJsonbP(i64 noundef %102)
  store ptr %103, ptr %11, align 8
  %104 = load ptr, ptr %5, align 8
  %105 = getelementptr inbounds nuw %struct.JsonIsPredicate, ptr %104, i32 0, i32 3
  %106 = load i32, ptr %105, align 8
  switch i32 %106, label %150 [
    i32 1, label %107
    i32 2, label %115
    i32 3, label %133
  ]

107:                                              ; preds = %101
  %108 = load ptr, ptr %11, align 8
  %109 = getelementptr inbounds nuw %struct.anon.49, ptr %108, i32 0, i32 1
  %110 = getelementptr inbounds [0 x i8], ptr %109, i64 0, i64 0
  %111 = load i32, ptr %110, align 4
  %112 = and i32 %111, 536870912
  %113 = icmp ne i32 %112, 0
  %114 = zext i1 %113 to i8
  store i8 %114, ptr %8, align 1
  br label %151

115:                                              ; preds = %101
  %116 = load ptr, ptr %11, align 8
  %117 = getelementptr inbounds nuw %struct.anon.49, ptr %116, i32 0, i32 1
  %118 = getelementptr inbounds [0 x i8], ptr %117, i64 0, i64 0
  %119 = load i32, ptr %118, align 4
  %120 = and i32 %119, 1073741824
  %121 = icmp ne i32 %120, 0
  br i1 %121, label %122, label %130

122:                                              ; preds = %115
  %123 = load ptr, ptr %11, align 8
  %124 = getelementptr inbounds nuw %struct.anon.49, ptr %123, i32 0, i32 1
  %125 = getelementptr inbounds [0 x i8], ptr %124, i64 0, i64 0
  %126 = load i32, ptr %125, align 4
  %127 = and i32 %126, 268435456
  %128 = icmp ne i32 %127, 0
  %129 = xor i1 %128, true
  br label %130

130:                                              ; preds = %122, %115
  %131 = phi i1 [ false, %115 ], [ %129, %122 ]
  %132 = zext i1 %131 to i8
  store i8 %132, ptr %8, align 1
  br label %151

133:                                              ; preds = %101
  %134 = load ptr, ptr %11, align 8
  %135 = getelementptr inbounds nuw %struct.anon.49, ptr %134, i32 0, i32 1
  %136 = getelementptr inbounds [0 x i8], ptr %135, i64 0, i64 0
  %137 = load i32, ptr %136, align 4
  %138 = and i32 %137, 1073741824
  %139 = icmp ne i32 %138, 0
  br i1 %139, label %140, label %147

140:                                              ; preds = %133
  %141 = load ptr, ptr %11, align 8
  %142 = getelementptr inbounds nuw %struct.anon.49, ptr %141, i32 0, i32 1
  %143 = getelementptr inbounds [0 x i8], ptr %142, i64 0, i64 0
  %144 = load i32, ptr %143, align 4
  %145 = and i32 %144, 268435456
  %146 = icmp ne i32 %145, 0
  br label %147

147:                                              ; preds = %140, %133
  %148 = phi i1 [ false, %133 ], [ %146, %140 ]
  %149 = zext i1 %148 to i8
  store i8 %149, ptr %8, align 1
  br label %151

150:                                              ; preds = %101
  store i8 0, ptr %8, align 1
  br label %151

151:                                              ; preds = %150, %147, %130, %107
  call void @llvm.lifetime.end.p0(i64 8, ptr %11) #11
  br label %152

152:                                              ; preds = %151, %100
  br label %154

153:                                              ; preds = %92
  store i8 0, ptr %8, align 1
  br label %154

154:                                              ; preds = %153, %152
  br label %155

155:                                              ; preds = %154, %91
  %156 = load i8, ptr %8, align 1, !range !7, !noundef !8
  %157 = trunc i8 %156 to i1
  %158 = call i64 @BoolGetDatum(i1 noundef zeroext %157)
  %159 = load ptr, ptr %4, align 8
  %160 = getelementptr inbounds nuw %struct.ExprEvalStep, ptr %159, i32 0, i32 1
  %161 = load ptr, ptr %160, align 8
  store i64 %158, ptr %161, align 8
  store i32 0, ptr %9, align 4
  br label %162

162:                                              ; preds = %155, %25
  call void @llvm.lifetime.end.p0(i64 1, ptr %8) #11
  call void @llvm.lifetime.end.p0(i64 4, ptr %7) #11
  call void @llvm.lifetime.end.p0(i64 8, ptr %6) #11
  call void @llvm.lifetime.end.p0(i64 8, ptr %5) #11
  %163 = load i32, ptr %9, align 4
  switch i32 %163, label %165 [
    i32 0, label %164
    i32 1, label %164
  ]

164:                                              ; preds = %162, %162
  ret void

165:                                              ; preds = %162
  unreachable
}