; Function Attrs: nounwind uwtable
define dso_local void @ExecEvalJsonIsPredicate(ptr readnone captures(none) %0, ptr noundef readonly captures(none) %1) local_unnamed_addr #0 {
  %3 = getelementptr inbounds nuw i8, ptr %1, i64 24
  %4 = load ptr, ptr %3, align 8
  %5 = getelementptr inbounds nuw i8, ptr %1, i64 8
  %6 = load ptr, ptr %5, align 8
  %7 = load i64, ptr %6, align 8
  %8 = getelementptr inbounds nuw i8, ptr %1, i64 16
  %9 = load ptr, ptr %8, align 8
  %10 = load i8, ptr %9, align 1, !range !8, !noundef !9
  %11 = trunc nuw i8 %10 to i1
  br i1 %11, label %12, label %13

12:                                               ; preds = %2
  store i64 0, ptr %6, align 8
  br label %65

13:                                               ; preds = %2
  %14 = getelementptr inbounds nuw i8, ptr %4, i64 8
  %15 = load ptr, ptr %14, align 8
  %16 = tail call i32 @exprType(ptr noundef %15) #18
  %17 = icmp eq i32 %16, 25
  switch i32 %16, label %.thread36 [
    i32 114, label %18
    i32 25, label %18
    i32 3802, label %40
  ]

18:                                               ; preds = %13, %13
  %19 = inttoptr i64 %7 to ptr
  %20 = tail call ptr @pg_detoast_datum(ptr noundef %19) #18
  %21 = getelementptr inbounds nuw i8, ptr %4, i64 24
  %22 = load i32, ptr %21, align 8
  %23 = icmp eq i32 %22, 0
  br i1 %23, label %.thread, label %24

24:                                               ; preds = %18
  %25 = tail call i32 @json_get_first_token(ptr noundef %20, i1 noundef zeroext false) #18
  switch i32 %25, label %.thread36 [
    i32 3, label %32
    i32 5, label %26
    i32 1, label %29
    i32 2, label %29
    i32 9, label %29
    i32 10, label %29
    i32 11, label %29
  ]

26:                                               ; preds = %24
  %27 = load i32, ptr %21, align 8
  %28 = icmp eq i32 %27, 2
  br i1 %28, label %.thread, label %.thread36

29:                                               ; preds = %24, %24, %24, %24, %24
  %30 = load i32, ptr %21, align 8
  %31 = icmp eq i32 %30, 3
  br i1 %31, label %.thread, label %.thread36

32:                                               ; preds = %24
  %33 = load i32, ptr %21, align 8
  %34 = icmp eq i32 %33, 1
  br i1 %34, label %.thread, label %.thread36

.thread:                                          ; preds = %18, %26, %29, %32
  %35 = getelementptr inbounds nuw i8, ptr %4, i64 28
  %36 = load i8, ptr %35, align 4, !range !8, !noundef !9
  %37 = trunc nuw i8 %36 to i1
  %or.cond3 = or i1 %17, %37
  br i1 %or.cond3, label %38, label %.thread36

38:                                               ; preds = %.thread
  %39 = tail call zeroext i1 @json_validate(ptr noundef %20, i1 noundef zeroext %37, i1 noundef zeroext false) #18
  br label %.thread36

40:                                               ; preds = %13
  %41 = getelementptr inbounds nuw i8, ptr %4, i64 24
  %42 = load i32, ptr %41, align 8
  %43 = icmp eq i32 %42, 0
  br i1 %43, label %.thread36, label %44

44:                                               ; preds = %40
  %45 = inttoptr i64 %7 to ptr
  %46 = tail call ptr @pg_detoast_datum(ptr noundef %45) #18
  %47 = load i32, ptr %41, align 8
  switch i32 %47, label %.thread36 [
    i32 1, label %48
    i32 2, label %53
    i32 3, label %58
  ]

48:                                               ; preds = %44
  %49 = getelementptr inbounds nuw i8, ptr %46, i64 4
  %50 = load i32, ptr %49, align 4
  %51 = and i32 %50, 536870912
  %52 = icmp ne i32 %51, 0
  br label %.thread36

53:                                               ; preds = %44
  %54 = getelementptr inbounds nuw i8, ptr %46, i64 4
  %55 = load i32, ptr %54, align 4
  %56 = and i32 %55, 1342177280
  %57 = icmp eq i32 %56, 1073741824
  br label %.thread36

58:                                               ; preds = %44
  %59 = getelementptr inbounds nuw i8, ptr %46, i64 4
  %60 = load i32, ptr %59, align 4
  %61 = and i32 %60, 1342177280
  %62 = icmp eq i32 %61, 1342177280
  br label %.thread36

.thread36:                                        ; preds = %24, %26, %29, %13, %48, %53, %58, %44, %40, %32, %38, %.thread
  %.2 = phi i1 [ %39, %38 ], [ true, %.thread ], [ false, %32 ], [ true, %40 ], [ %62, %58 ], [ %57, %53 ], [ %52, %48 ], [ false, %44 ], [ false, %13 ], [ false, %29 ], [ false, %26 ], [ false, %24 ]
  %63 = zext i1 %.2 to i64
  %64 = load ptr, ptr %5, align 8
  store i64 %63, ptr %64, align 8
  br label %65

65:                                               ; preds = %.thread36, %12
  ret void
}